target datalayout = "e-m:e-p270:32:32-p271:32:32-p272:64:64-i64:64-i128:128-f80:128-n8:16:32:64-S128"
target triple = "x86_64-pc-linux-gnu"

; Function Attrs: nounwind uwtable
define internal void @hwloc_internal_distances_restrict(ptr noundef %0, ptr noundef %1, ptr noundef %2, ptr noundef %3, i32 noundef %4, i32 noundef %5) #0 {
  %7 = alloca ptr, align 8
  %8 = alloca ptr, align 8
  %9 = alloca ptr, align 8
  %10 = alloca ptr, align 8
  %11 = alloca i32, align 4
  %12 = alloca i32, align 4
  %13 = alloca i32, align 4
  %14 = alloca i32, align 4
  %15 = alloca i32, align 4
  %16 = alloca i32, align 4
  store ptr %0, ptr %7, align 8, !tbaa !82
  store ptr %1, ptr %8, align 8, !tbaa !83
  store ptr %2, ptr %9, align 8, !tbaa !81
  store ptr %3, ptr %10, align 8, !tbaa !83
  store i32 %4, ptr %11, align 4, !tbaa !38
  store i32 %5, ptr %12, align 4, !tbaa !38
  call void @llvm.lifetime.start.p0(i64 4, ptr %13) #15
  call void @llvm.lifetime.start.p0(i64 4, ptr %14) #15
  call void @llvm.lifetime.start.p0(i64 4, ptr %15) #15
  call void @llvm.lifetime.start.p0(i64 4, ptr %16) #15
  store i32 0, ptr %13, align 4, !tbaa !38
  store i32 0, ptr %14, align 4, !tbaa !38
  br label %17

17:                                               ; preds = %70, %6
  %18 = load i32, ptr %13, align 4, !tbaa !38
  %19 = load i32, ptr %11, align 4, !tbaa !38
  %20 = icmp ult i32 %18, %19
  br i1 %20, label %21, label %73

21:                                               ; preds = %17
  %22 = load ptr, ptr %7, align 8, !tbaa !82
  %23 = load i32, ptr %13, align 4, !tbaa !38
  %24 = zext i32 %23 to i64
  %25 = getelementptr inbounds nuw ptr, ptr %22, i64 %24
  %26 = load ptr, ptr %25, align 8, !tbaa !84
  %27 = icmp ne ptr %26, null
  br i1 %27, label %28, label %69

28:                                               ; preds = %21
  store i32 0, ptr %15, align 4, !tbaa !38
  store i32 0, ptr %16, align 4, !tbaa !38
  br label %29

29:                                               ; preds = %63, %28
  %30 = load i32, ptr %15, align 4, !tbaa !38
  %31 = load i32, ptr %11, align 4, !tbaa !38
  %32 = icmp ult i32 %30, %31
  br i1 %32, label %33, label %66

33:                                               ; preds = %29
  %34 = load ptr, ptr %7, align 8, !tbaa !82
  %35 = load i32, ptr %15, align 4, !tbaa !38
  %36 = zext i32 %35 to i64
  %37 = getelementptr inbounds nuw ptr, ptr %34, i64 %36
  %38 = load ptr, ptr %37, align 8, !tbaa !84
  %39 = icmp ne ptr %38, null
  br i1 %39, label %40, label %62

40:                                               ; preds = %33
  %41 = load ptr, ptr %10, align 8, !tbaa !83
  %42 = load i32, ptr %13, align 4, !tbaa !38
  %43 = load i32, ptr %11, align 4, !tbaa !38
  %44 = mul i32 %42, %43
  %45 = load i32, ptr %15, align 4, !tbaa !38
  %46 = add i32 %44, %45
  %47 = zext i32 %46 to i64
  %48 = getelementptr inbounds nuw i64, ptr %41, i64 %47
  %49 = load i64, ptr %48, align 8, !tbaa !80
  %50 = load ptr, ptr %10, align 8, !tbaa !83
  %51 = load i32, ptr %14, align 4, !tbaa !38
  %52 = load i32, ptr %11, align 4, !tbaa !38
  %53 = load i32, ptr %12, align 4, !tbaa !38
  %54 = sub i32 %52, %53
  %55 = mul i32 %51, %54
  %56 = load i32, ptr %16, align 4, !tbaa !38
  %57 = add i32 %55, %56
  %58 = zext i32 %57 to i64
  %59 = getelementptr inbounds nuw i64, ptr %50, i64 %58
  store i64 %49, ptr %59, align 8, !tbaa !80
  %60 = load i32, ptr %16, align 4, !tbaa !38
  %61 = add i32 %60, 1
  store i32 %61, ptr %16, align 4, !tbaa !38
  br label %62

62:                                               ; preds = %40, %33
  br label %63

63:                                               ; preds = %62
  %64 = load i32, ptr %15, align 4, !tbaa !38
  %65 = add i32 %64, 1
  store i32 %65, ptr %15, align 4, !tbaa !38
  br label %29, !llvm.loop !96

66:                                               ; preds = %29
  %67 = load i32, ptr %14, align 4, !tbaa !38
  %68 = add i32 %67, 1
  store i32 %68, ptr %14, align 4, !tbaa !38
  br label %69

69:                                               ; preds = %66, %21
  br label %70

70:                                               ; preds = %69
  %71 = load i32, ptr %13, align 4, !tbaa !38
  %72 = add i32 %71, 1
  store i32 %72, ptr %13, align 4, !tbaa !38
  br label %17, !llvm.loop !97

73:                                               ; preds = %17
  store i32 0, ptr %13, align 4, !tbaa !38
  store i32 0, ptr %14, align 4, !tbaa !38
  br label %74

74:                                               ; preds = %124, %73
  %75 = load i32, ptr %13, align 4, !tbaa !38
  %76 = load i32, ptr %11, align 4, !tbaa !38
  %77 = icmp ult i32 %75, %76
  br i1 %77, label %78, label %127

78:                                               ; preds = %74
  %79 = load ptr, ptr %7, align 8, !tbaa !82
  %80 = load i32, ptr %13, align 4, !tbaa !38
  %81 = zext i32 %80 to i64
  %82 = getelementptr inbounds nuw ptr, ptr %79, i64 %81
  %83 = load ptr, ptr %82, align 8, !tbaa !84
  %84 = icmp ne ptr %83, null
  br i1 %84, label %85, label %123

85:                                               ; preds = %78
  %86 = load ptr, ptr %7, align 8, !tbaa !82
  %87 = load i32, ptr %13, align 4, !tbaa !38
  %88 = zext i32 %87 to i64
  %89 = getelementptr inbounds nuw ptr, ptr %86, i64 %88
  %90 = load ptr, ptr %89, align 8, !tbaa !84
  %91 = load ptr, ptr %7, align 8, !tbaa !82
  %92 = load i32, ptr %14, align 4, !tbaa !38
  %93 = zext i32 %92 to i64
  %94 = getelementptr inbounds nuw ptr, ptr %91, i64 %93
  store ptr %90, ptr %94, align 8, !tbaa !84
  %95 = load ptr, ptr %8, align 8, !tbaa !83
  %96 = icmp ne ptr %95, null
  br i1 %96, label %97, label %107

97:                                               ; preds = %85
  %98 = load ptr, ptr %8, align 8, !tbaa !83
  %99 = load i32, ptr %13, align 4, !tbaa !38
  %100 = zext i32 %99 to i64
  %101 = getelementptr inbounds nuw i64, ptr %98, i64 %100
  %102 = load i64, ptr %101, align 8, !tbaa !80
  %103 = load ptr, ptr %8, align 8, !tbaa !83
  %104 = load i32, ptr %14, align 4, !tbaa !38
  %105 = zext i32 %104 to i64
  %106 = getelementptr inbounds nuw i64, ptr %103, i64 %105
  store i64 %102, ptr %106, align 8, !tbaa !80
  br label %107

107:                                              ; preds = %97, %85
  %108 = load ptr, ptr %9, align 8, !tbaa !81
  %109 = icmp ne ptr %108, null
  br i1 %109, label %110, label %120

110:                                              ; preds = %107
  %111 = load ptr, ptr %9, align 8, !tbaa !81
  %112 = load i32, ptr %13, align 4, !tbaa !38
  %113 = zext i32 %112 to i64
  %114 = getelementptr inbounds nuw i32, ptr %111, i64 %113
  %115 = load i32, ptr %114, align 4, !tbaa !38
  %116 = load ptr, ptr %9, align 8, !tbaa !81
  %117 = load i32, ptr %14, align 4, !tbaa !38
  %118 = zext i32 %117 to i64
  %119 = getelementptr inbounds nuw i32, ptr %116, i64 %118
  store i32 %115, ptr %119, align 4, !tbaa !38
  br label %120

120:                                              ; preds = %110, %107
  %121 = load i32, ptr %14, align 4, !tbaa !38
  %122 = add i32 %121, 1
  store i32 %122, ptr %14, align 4, !tbaa !38
  br label %123

123:                                              ; preds = %120, %78
  br label %124

124:                                              ; preds = %123
  %125 = load i32, ptr %13, align 4, !tbaa !38
  %126 = add i32 %125, 1
  store i32 %126, ptr %13, align 4, !tbaa !38
  br label %74, !llvm.loop !98

127:                                              ; preds = %74
  call void @llvm.lifetime.end.p0(i64 4, ptr %16) #15
  call void @llvm.lifetime.end.p0(i64 4, ptr %15) #15
  call void @llvm.lifetime.end.p0(i64 4, ptr %14) #15
  call void @llvm.lifetime.end.p0(i64 4, ptr %13) #15
  ret void
}