; Function Attrs: nofree norecurse nosync nounwind memory(argmem: readwrite) uwtable
define internal fastcc void @hwloc_internal_distances_restrict(ptr noundef captures(none) %0, ptr noundef captures(address_is_null) %1, ptr noundef captures(address_is_null) %2, ptr noundef captures(none) %3, i32 noundef %4, i32 noundef %5) unnamed_addr #11 {
  %.not66 = icmp eq i32 %4, 0
  br i1 %.not66, label %._crit_edge, label %.lr.ph

.lr.ph:                                           ; preds = %6
  %7 = sub i32 %4, %5
  %wide.trip.count75 = zext i32 %4 to i64
  br label %35

.lr.ph61:                                         ; preds = %57
  %.not50 = icmp eq ptr %1, null
  %.not51 = icmp eq ptr %2, null
  %wide.trip.count95 = zext i32 %4 to i64
  br i1 %.not50, label %.lr.ph61.split.us, label %.lr.ph61.split

.lr.ph61.split.us:                                ; preds = %.lr.ph61
  br i1 %.not51, label %.lr.ph61.split.us.split.us, label %.lr.ph61.split.us.split

.lr.ph61.split.us.split.us:                       ; preds = %.lr.ph61.split.us, %14
  %indvars.iv92 = phi i64 [ %indvars.iv.next93, %14 ], [ 0, %.lr.ph61.split.us ]
  %.260.us.us = phi i32 [ %.3.us.us, %14 ], [ 0, %.lr.ph61.split.us ]
  %8 = getelementptr inbounds nuw ptr, ptr %0, i64 %indvars.iv92
  %9 = load ptr, ptr %8, align 8, !tbaa !72
  %.not.us.us = icmp eq ptr %9, null
  br i1 %.not.us.us, label %14, label %10

10:                                               ; preds = %.lr.ph61.split.us.split.us
  %11 = zext i32 %.260.us.us to i64
  %12 = getelementptr inbounds nuw ptr, ptr %0, i64 %11
  store ptr %9, ptr %12, align 8, !tbaa !72
  %13 = add i32 %.260.us.us, 1
  br label %14

14:                                               ; preds = %10, %.lr.ph61.split.us.split.us
  %.3.us.us = phi i32 [ %13, %10 ], [ %.260.us.us, %.lr.ph61.split.us.split.us ]
  %indvars.iv.next93 = add nuw nsw i64 %indvars.iv92, 1
  %exitcond96.not = icmp eq i64 %indvars.iv.next93, %wide.trip.count95
  br i1 %exitcond96.not, label %._crit_edge, label %.lr.ph61.split.us.split.us, !llvm.loop !75

.lr.ph61.split.us.split:                          ; preds = %.lr.ph61.split.us, %24
  %indvars.iv87 = phi i64 [ %indvars.iv.next88, %24 ], [ 0, %.lr.ph61.split.us ]
  %.260.us = phi i32 [ %.3.us, %24 ], [ 0, %.lr.ph61.split.us ]
  %15 = getelementptr inbounds nuw ptr, ptr %0, i64 %indvars.iv87
  %16 = load ptr, ptr %15, align 8, !tbaa !72
  %.not.us = icmp eq ptr %16, null
  br i1 %.not.us, label %24, label %17

17:                                               ; preds = %.lr.ph61.split.us.split
  %18 = zext i32 %.260.us to i64
  %19 = getelementptr inbounds nuw ptr, ptr %0, i64 %18
  store ptr %16, ptr %19, align 8, !tbaa !72
  %20 = getelementptr inbounds nuw i32, ptr %2, i64 %indvars.iv87
  %21 = load i32, ptr %20, align 4, !tbaa !3
  %22 = getelementptr inbounds nuw i32, ptr %2, i64 %18
  store i32 %21, ptr %22, align 4, !tbaa !3
  %23 = add i32 %.260.us, 1
  br label %24

24:                                               ; preds = %17, %.lr.ph61.split.us.split
  %.3.us = phi i32 [ %23, %17 ], [ %.260.us, %.lr.ph61.split.us.split ]
  %indvars.iv.next88 = add nuw nsw i64 %indvars.iv87, 1
  %exitcond91.not = icmp eq i64 %indvars.iv.next88, %wide.trip.count95
  br i1 %exitcond91.not, label %._crit_edge, label %.lr.ph61.split.us.split, !llvm.loop !75

.lr.ph61.split:                                   ; preds = %.lr.ph61
  br i1 %.not51, label %.lr.ph61.split.split.us, label %.lr.ph61.split.split

.lr.ph61.split.split.us:                          ; preds = %.lr.ph61.split, %34
  %indvars.iv82 = phi i64 [ %indvars.iv.next83, %34 ], [ 0, %.lr.ph61.split ]
  %.260.us62 = phi i32 [ %.3.us65, %34 ], [ 0, %.lr.ph61.split ]
  %25 = getelementptr inbounds nuw ptr, ptr %0, i64 %indvars.iv82
  %26 = load ptr, ptr %25, align 8, !tbaa !72
  %.not.us64 = icmp eq ptr %26, null
  br i1 %.not.us64, label %34, label %27

27:                                               ; preds = %.lr.ph61.split.split.us
  %28 = zext i32 %.260.us62 to i64
  %29 = getelementptr inbounds nuw ptr, ptr %0, i64 %28
  store ptr %26, ptr %29, align 8, !tbaa !72
  %30 = getelementptr inbounds nuw i64, ptr %1, i64 %indvars.iv82
  %31 = load i64, ptr %30, align 8, !tbaa !76
  %32 = getelementptr inbounds nuw i64, ptr %1, i64 %28
  store i64 %31, ptr %32, align 8, !tbaa !76
  %33 = add i32 %.260.us62, 1
  br label %34

34:                                               ; preds = %27, %.lr.ph61.split.split.us
  %.3.us65 = phi i32 [ %33, %27 ], [ %.260.us62, %.lr.ph61.split.split.us ]
  %indvars.iv.next83 = add nuw nsw i64 %indvars.iv82, 1
  %exitcond86.not = icmp eq i64 %indvars.iv.next83, %wide.trip.count95
  br i1 %exitcond86.not, label %._crit_edge, label %.lr.ph61.split.split.us, !llvm.loop !75

35:                                               ; preds = %.lr.ph, %57
  %indvars.iv72 = phi i64 [ 0, %.lr.ph ], [ %indvars.iv.next73, %57 ]
  %.04158 = phi i32 [ 0, %.lr.ph ], [ %.142, %57 ]
  %36 = getelementptr inbounds nuw ptr, ptr %0, i64 %indvars.iv72
  %37 = load ptr, ptr %36, align 8, !tbaa !72
  %.not52 = icmp eq ptr %37, null
  br i1 %.not52, label %57, label %.preheader54

.preheader54:                                     ; preds = %35
  %38 = trunc nuw i64 %indvars.iv72 to i32
  %39 = mul i32 %4, %38
  %40 = mul i32 %.04158, %7
  br label %41

41:                                               ; preds = %.preheader54, %54
  %indvars.iv = phi i64 [ 0, %.preheader54 ], [ %indvars.iv.next, %54 ]
  %.056 = phi i32 [ 0, %.preheader54 ], [ %.1, %54 ]
  %42 = getelementptr inbounds nuw ptr, ptr %0, i64 %indvars.iv
  %43 = load ptr, ptr %42, align 8, !tbaa !72
  %.not53 = icmp eq ptr %43, null
  br i1 %.not53, label %54, label %44

44:                                               ; preds = %41
  %45 = trunc nuw i64 %indvars.iv to i32
  %46 = add i32 %39, %45
  %47 = zext i32 %46 to i64
  %48 = getelementptr inbounds nuw i64, ptr %3, i64 %47
  %49 = load i64, ptr %48, align 8, !tbaa !76
  %50 = add i32 %.056, %40
  %51 = zext i32 %50 to i64
  %52 = getelementptr inbounds nuw i64, ptr %3, i64 %51
  store i64 %49, ptr %52, align 8, !tbaa !76
  %53 = add i32 %.056, 1
  br label %54

54:                                               ; preds = %41, %44
  %.1 = phi i32 [ %53, %44 ], [ %.056, %41 ]
  %indvars.iv.next = add nuw nsw i64 %indvars.iv, 1
  %exitcond.not = icmp eq i64 %indvars.iv.next, %wide.trip.count75
  br i1 %exitcond.not, label %55, label %41, !llvm.loop !77

55:                                               ; preds = %54
  %56 = add i32 %.04158, 1
  br label %57

57:                                               ; preds = %35, %55
  %.142 = phi i32 [ %56, %55 ], [ %.04158, %35 ]
  %indvars.iv.next73 = add nuw nsw i64 %indvars.iv72, 1
  %exitcond76.not = icmp eq i64 %indvars.iv.next73, %wide.trip.count75
  br i1 %exitcond76.not, label %.lr.ph61, label %35, !llvm.loop !78

.lr.ph61.split.split:                             ; preds = %.lr.ph61.split, %70
  %indvars.iv77 = phi i64 [ %indvars.iv.next78, %70 ], [ 0, %.lr.ph61.split ]
  %.260 = phi i32 [ %.3, %70 ], [ 0, %.lr.ph61.split ]
  %58 = getelementptr inbounds nuw ptr, ptr %0, i64 %indvars.iv77
  %59 = load ptr, ptr %58, align 8, !tbaa !72
  %.not = icmp eq ptr %59, null
  br i1 %.not, label %70, label %60

60:                                               ; preds = %.lr.ph61.split.split
  %61 = zext i32 %.260 to i64
  %62 = getelementptr inbounds nuw ptr, ptr %0, i64 %61
  store ptr %59, ptr %62, align 8, !tbaa !72
  %63 = getelementptr inbounds nuw i64, ptr %1, i64 %indvars.iv77
  %64 = load i64, ptr %63, align 8, !tbaa !76
  %65 = getelementptr inbounds nuw i64, ptr %1, i64 %61
  store i64 %64, ptr %65, align 8, !tbaa !76
  %66 = getelementptr inbounds nuw i32, ptr %2, i64 %indvars.iv77
  %67 = load i32, ptr %66, align 4, !tbaa !3
  %68 = getelementptr inbounds nuw i32, ptr %2, i64 %61
  store i32 %67, ptr %68, align 4, !tbaa !3
  %69 = add i32 %.260, 1
  br label %70

70:                                               ; preds = %.lr.ph61.split.split, %60
  %.3 = phi i32 [ %69, %60 ], [ %.260, %.lr.ph61.split.split ]
  %indvars.iv.next78 = add nuw nsw i64 %indvars.iv77, 1
  %exitcond81.not = icmp eq i64 %indvars.iv.next78, %wide.trip.count95
  br i1 %exitcond81.not, label %._crit_edge, label %.lr.ph61.split.split, !llvm.loop !75

._crit_edge:                                      ; preds = %70, %34, %24, %14, %6
  ret void
}